---
triple:          'arm64-apple-darwin'
binary-path:     plot
relocations:
  - { offsetInCU: 0x5C, offset: 0x5C, size: 0x8, addend: 0x0, symName: __ZNSt3__1L19piecewise_constructE, symObjAddr: 0x6CFE, symBinAddr: 0x1000079D6, symSize: 0x0 }
  - { offsetInCU: 0x3160, offset: 0x3160, size: 0x8, addend: 0x0, symName: __ZNSt3__124__put_character_sequenceB7v160006IcNS_11char_traitsIcEEEERNS_13basic_ostreamIT_T0_EES7_PKS4_m, symObjAddr: 0x4178, symBinAddr: 0x100004C10, symSize: 0x164 }
  - { offsetInCU: 0x1BCCA, offset: 0x1BCCA, size: 0x8, addend: 0x0, symName: __ZNSt3__17getlineB7v160006IcNS_11char_traitsIcEENS_9allocatorIcEEEERNS_13basic_istreamIT_T0_EES9_RNS_12basic_stringIS6_S7_T1_EES6_, symObjAddr: 0x4520, symBinAddr: 0x100004FB8, symSize: 0x188 }
  - { offsetInCU: 0x1BFA1, offset: 0x1BFA1, size: 0x8, addend: 0x0, symName: __ZNSt3__1rsB7v160006IcNS_11char_traitsIcEEEERNS_13basic_istreamIT_T0_EES7_RS4_, symObjAddr: 0xA7C, symBinAddr: 0x100001514, symSize: 0x100 }
  - { offsetInCU: 0x1C115, offset: 0x1C115, size: 0x8, addend: 0x0, symName: __ZNSt3__1rsB7v160006IcNS_11char_traitsIcEENS_9allocatorIcEEEERNS_13basic_istreamIT_T0_EES9_RNS_12basic_stringIS6_S7_T1_EE, symObjAddr: 0x854, symBinAddr: 0x1000012EC, symSize: 0x228 }
  - { offsetInCU: 0x1C755, offset: 0x1C755, size: 0x8, addend: 0x0, symName: __ZNSt3__1eqB7v160006IcNS_11char_traitsIcEENS_9allocatorIcEEEEbRKNS_12basic_stringIT_T0_T1_EEPKS6_, symObjAddr: 0x36EC, symBinAddr: 0x100004184, symSize: 0xBC }
  - { offsetInCU: 0x1CCB8, offset: 0x1CCB8, size: 0x8, addend: 0x0, symName: __ZNSt3__116__pad_and_outputB7v160006IcNS_11char_traitsIcEEEENS_19ostreambuf_iteratorIT_T0_EES6_PKS4_S8_S8_RNS_8ios_baseES4_, symObjAddr: 0x42DC, symBinAddr: 0x100004D74, symSize: 0x194 }
  - { offsetInCU: 0x1D47F, offset: 0x1D47F, size: 0x8, addend: 0x0, symName: __ZNSt3__120__throw_length_errorB7v160006EPKc, symObjAddr: 0x4484, symBinAddr: 0x100004F1C, symSize: 0x50 }
  - { offsetInCU: 0x1D749, offset: 0x1D749, size: 0x8, addend: 0x0, symName: __ZNSt3__120__throw_out_of_rangeB7v160006EPKc, symObjAddr: 0x4C50, symBinAddr: 0x1000056E8, symSize: 0x50 }
  - { offsetInCU: 0x1D7FE, offset: 0x1D7FE, size: 0x8, addend: 0x0, symName: __ZNSt3__127__tree_balance_after_insertB7v160006IPNS_16__tree_node_baseIPvEEEEvT_S5_, symObjAddr: 0x4E48, symBinAddr: 0x1000058E0, symSize: 0x1B4 }
  - { offsetInCU: 0x1EC56, offset: 0x1EC56, size: 0x8, addend: 0x0, symName: __ZSt28__throw_bad_array_new_lengthB7v160006v, symObjAddr: 0x44F8, symBinAddr: 0x100004F90, symSize: 0x28 }
  - { offsetInCU: 0x2322E, offset: 0x2322E, size: 0x8, addend: 0x0, symName: __Z8plotDataRKNSt3__16vectorI12PlacementRowNS_9allocatorIS1_EEEE, symObjAddr: 0x0, symBinAddr: 0x100000A98, symSize: 0x1B0 }
  - { offsetInCU: 0x23FF9, offset: 0x23FF9, size: 0x8, addend: 0x0, symName: __Z11load_pointsPKcRNSt3__16vectorINS1_12basic_stringIcNS1_11char_traitsIcEENS1_9allocatorIcEEEENS6_IS8_EEEE, symObjAddr: 0x1B0, symBinAddr: 0x100000C48, symSize: 0x468 }
  - { offsetInCU: 0x256F8, offset: 0x256F8, size: 0x8, addend: 0x0, symName: __ZNSt3__114basic_ifstreamIcNS_11char_traitsIcEEEC1EPKcj, symObjAddr: 0x618, symBinAddr: 0x1000010B0, symSize: 0x10C }
  - { offsetInCU: 0x257DB, offset: 0x257DB, size: 0x8, addend: 0x0, symName: __ZNSt3__119basic_istringstreamIcNS_11char_traitsIcEENS_9allocatorIcEEEC1B7v160006ERKNS_12basic_stringIcS2_S4_EEj, symObjAddr: 0x724, symBinAddr: 0x1000011BC, symSize: 0x130 }
  - { offsetInCU: 0x259D1, offset: 0x259D1, size: 0x8, addend: 0x0, symName: __ZNSt3__16vectorINS0_IdNS_9allocatorIdEEEENS1_IS3_EEE21__push_back_slow_pathIRKS3_EEvOT_, symObjAddr: 0x46BC, symBinAddr: 0x100005154, symSize: 0x28C }
  - { offsetInCU: 0x263B8, offset: 0x263B8, size: 0x8, addend: 0x0, symName: __ZNSt3__16vectorINS_12basic_stringIcNS_11char_traitsIcEENS_9allocatorIcEEEENS4_IS6_EEE21__push_back_slow_pathIRKS6_EEvOT_, symObjAddr: 0x49C8, symBinAddr: 0x100005460, symSize: 0x19C }
  - { offsetInCU: 0x26A3A, offset: 0x26A3A, size: 0x8, addend: 0x0, symName: __ZNKSt3__16vectorIdNS_9allocatorIdEEE20__throw_length_errorB7v160006Ev, symObjAddr: 0x46A8, symBinAddr: 0x100005140, symSize: 0x14 }
  - { offsetInCU: 0x26A64, offset: 0x26A64, size: 0x8, addend: 0x0, symName: __ZNSt3__16vectorINS0_IdNS_9allocatorIdEEEENS1_IS3_EEE21__push_back_slow_pathIRKS3_EEvOT_, symObjAddr: 0x46BC, symBinAddr: 0x100005154, symSize: 0x28C }
  - { offsetInCU: 0x26A6F, offset: 0x26A6F, size: 0x8, addend: 0x0, symName: __ZNSt3__119basic_istringstreamIcNS_11char_traitsIcEENS_9allocatorIcEEED1Ev, symObjAddr: 0xB7C, symBinAddr: 0x100001614, symSize: 0x84 }
  - { offsetInCU: 0x26C1D, offset: 0x26C1D, size: 0x8, addend: 0x0, symName: __ZNSt3__114basic_ifstreamIcNS_11char_traitsIcEEED1Ev, symObjAddr: 0xC00, symBinAddr: 0x100001698, symSize: 0x58 }
  - { offsetInCU: 0x26C65, offset: 0x26C65, size: 0x8, addend: 0x0, symName: __ZNSt3__16vectorINS0_IdNS_9allocatorIdEEEENS1_IS3_EEED1B7v160006Ev, symObjAddr: 0xC58, symBinAddr: 0x1000016F0, symSize: 0x74 }
  - { offsetInCU: 0x27342, offset: 0x27342, size: 0x8, addend: 0x0, symName: __Z12print_pointsNSt3__16vectorINS0_IdNS_9allocatorIdEEEENS1_IS3_EEEE, symObjAddr: 0xCCC, symBinAddr: 0x100001764, symSize: 0xDC }
  - { offsetInCU: 0x28EA7, offset: 0x28EA7, size: 0x8, addend: 0x0, symName: _main, symObjAddr: 0xDA8, symBinAddr: 0x100001840, symSize: 0x2944 }
  - { offsetInCU: 0x338D0, offset: 0x338D0, size: 0x8, addend: 0x0, symName: __ZNSt3__16vectorI3PinNS_9allocatorIS1_EEE21__push_back_slow_pathIRKS1_EEvOT_, symObjAddr: 0x4FFC, symBinAddr: 0x100005A94, symSize: 0x1C0 }
  - { offsetInCU: 0x34031, offset: 0x34031, size: 0x8, addend: 0x0, symName: __ZNSt3__16__treeINS_12__value_typeINS_12basic_stringIcNS_11char_traitsIcEENS_9allocatorIcEEEEdEENS_19__map_value_compareIS7_S8_NS_4lessIS7_EELb1EEENS5_IS8_EEE25__emplace_unique_key_argsIS7_JRKNS_21piecewise_construct_tENS_5tupleIJRKS7_EEENSJ_IJEEEEEENS_4pairINS_15__tree_iteratorIS8_PNS_11__tree_nodeIS8_PvEElEEbEERKT_DpOT0_, symObjAddr: 0x4CC4, symBinAddr: 0x10000575C, symSize: 0x184 }
  - { offsetInCU: 0x34624, offset: 0x34624, size: 0x8, addend: 0x0, symName: __ZNSt3__16vectorI3PinNS_9allocatorIS1_EEEC2ERKS4_, symObjAddr: 0x54AC, symBinAddr: 0x100005F44, symSize: 0x12C }
  - { offsetInCU: 0x349A1, offset: 0x349A1, size: 0x8, addend: 0x0, symName: __ZNSt3__16vectorI12PlacementRowNS_9allocatorIS1_EEE9push_backB7v160006ERKS1_, symObjAddr: 0x39CC, symBinAddr: 0x100004464, symSize: 0x144 }
  - { offsetInCU: 0x34E81, offset: 0x34E81, size: 0x8, addend: 0x0, symName: __ZNSt3__16vectorI11TimingSlackNS_9allocatorIS1_EEE9push_backB7v160006ERKS1_, symObjAddr: 0x3B10, symBinAddr: 0x1000045A8, symSize: 0x9C }
  - { offsetInCU: 0x34E8C, offset: 0x34E8C, size: 0x8, addend: 0x0, symName: __ZNSt3__16vectorI3NetNS_9allocatorIS1_EEE9push_backB7v160006ERKS1_, symObjAddr: 0x3898, symBinAddr: 0x100004330, symSize: 0x9C }
  - { offsetInCU: 0x3514F, offset: 0x3514F, size: 0x8, addend: 0x0, symName: __ZN3NetD1Ev, symObjAddr: 0x3934, symBinAddr: 0x1000043CC, symSize: 0x98 }
  - { offsetInCU: 0x35542, offset: 0x35542, size: 0x8, addend: 0x0, symName: __ZNSt3__16vectorI11TimingSlackNS_9allocatorIS1_EEE9push_backB7v160006ERKS1_, symObjAddr: 0x3B10, symBinAddr: 0x1000045A8, symSize: 0x9C }
  - { offsetInCU: 0x357C8, offset: 0x357C8, size: 0x8, addend: 0x0, symName: __ZN11TimingSlackD1Ev, symObjAddr: 0x3BAC, symBinAddr: 0x100004644, symSize: 0x58 }
  - { offsetInCU: 0x35A1B, offset: 0x35A1B, size: 0x8, addend: 0x0, symName: __ZNSt3__16vectorI8FlipFlopNS_9allocatorIS1_EEE21__push_back_slow_pathIRKS1_EEvOT_, symObjAddr: 0x5234, symBinAddr: 0x100005CCC, symSize: 0x278 }
  - { offsetInCU: 0x365FA, offset: 0x365FA, size: 0x8, addend: 0x0, symName: __ZNSt3__16vectorI8InstanceNS_9allocatorIS1_EEE21__push_back_slow_pathIRKS1_EEvOT_, symObjAddr: 0x57A4, symBinAddr: 0x10000623C, symSize: 0x1FC }
  - { offsetInCU: 0x36F87, offset: 0x36F87, size: 0x8, addend: 0x0, symName: __ZNSt3__16vectorI9GatePowerNS_9allocatorIS1_EEE9push_backB7v160006ERKS1_, symObjAddr: 0x3C04, symBinAddr: 0x10000469C, symSize: 0x70 }
  - { offsetInCU: 0x370FA, offset: 0x370FA, size: 0x8, addend: 0x0, symName: __ZNSt3__16vectorI9QpindelayNS_9allocatorIS1_EEE9push_backB7v160006ERKS1_, symObjAddr: 0x3C74, symBinAddr: 0x10000470C, symSize: 0x70 }
  - { offsetInCU: 0x3726D, offset: 0x3726D, size: 0x8, addend: 0x0, symName: __ZNSt3__16__treeINS_12__value_typeINS_12basic_stringIcNS_11char_traitsIcEENS_9allocatorIcEEEEdEENS_19__map_value_compareIS7_S8_NS_4lessIS7_EELb1EEENS5_IS8_EEE7destroyEPNS_11__tree_nodeIS8_PvEE, symObjAddr: 0x4BDC, symBinAddr: 0x100005674, symSize: 0x60 }
  - { offsetInCU: 0x374D3, offset: 0x374D3, size: 0x8, addend: 0x0, symName: __ZN8InstanceD1Ev, symObjAddr: 0x3840, symBinAddr: 0x1000042D8, symSize: 0x58 }
  - { offsetInCU: 0x37726, offset: 0x37726, size: 0x8, addend: 0x0, symName: __ZNSt3__16vectorINS_12basic_stringIcNS_11char_traitsIcEENS_9allocatorIcEEEENS4_IS6_EEED1B7v160006Ev, symObjAddr: 0x3CE4, symBinAddr: 0x10000477C, symSize: 0x74 }
  - { offsetInCU: 0x379D6, offset: 0x379D6, size: 0x8, addend: 0x0, symName: __ZN8FlipFlopD1Ev, symObjAddr: 0x37A8, symBinAddr: 0x100004240, symSize: 0x98 }
  - { offsetInCU: 0x37E09, offset: 0x37E09, size: 0x8, addend: 0x0, symName: __ZNSt3__16vectorI9QpindelayNS_9allocatorIS1_EEED1B7v160006Ev, symObjAddr: 0x3D58, symBinAddr: 0x1000047F0, symSize: 0x74 }
  - { offsetInCU: 0x380F1, offset: 0x380F1, size: 0x8, addend: 0x0, symName: __ZNSt3__16vectorI9GatePowerNS_9allocatorIS1_EEED1B7v160006Ev, symObjAddr: 0x3DCC, symBinAddr: 0x100004864, symSize: 0x74 }
  - { offsetInCU: 0x383D9, offset: 0x383D9, size: 0x8, addend: 0x0, symName: __ZNSt3__16vectorI11TimingSlackNS_9allocatorIS1_EEED1B7v160006Ev, symObjAddr: 0x3E40, symBinAddr: 0x1000048D8, symSize: 0x94 }
  - { offsetInCU: 0x38788, offset: 0x38788, size: 0x8, addend: 0x0, symName: __ZNSt3__16vectorI3NetNS_9allocatorIS1_EEED1B7v160006Ev, symObjAddr: 0x3ED4, symBinAddr: 0x10000496C, symSize: 0xC8 }
  - { offsetInCU: 0x38D1E, offset: 0x38D1E, size: 0x8, addend: 0x0, symName: __ZNSt3__16vectorI8InstanceNS_9allocatorIS1_EEED1B7v160006Ev, symObjAddr: 0x3F9C, symBinAddr: 0x100004A34, symSize: 0x94 }
  - { offsetInCU: 0x390CD, offset: 0x390CD, size: 0x8, addend: 0x0, symName: __ZNSt3__16vectorI8FlipFlopNS_9allocatorIS1_EEED1B7v160006Ev, symObjAddr: 0x4030, symBinAddr: 0x100004AC8, symSize: 0xC8 }
  - { offsetInCU: 0x39691, offset: 0x39691, size: 0x8, addend: 0x0, symName: __ZNSt3__16vectorI3PinNS_9allocatorIS1_EEED1B7v160006Ev, symObjAddr: 0x40F8, symBinAddr: 0x100004B90, symSize: 0x74 }
  - { offsetInCU: 0x399A2, offset: 0x399A2, size: 0x8, addend: 0x0, symName: __ZNKSt3__112basic_stringIcNS_11char_traitsIcEENS_9allocatorIcEEE20__throw_out_of_rangeB7v160006Ev, symObjAddr: 0x4C3C, symBinAddr: 0x1000056D4, symSize: 0x14 }
  - { offsetInCU: 0x399CC, offset: 0x399CC, size: 0x8, addend: 0x0, symName: __ZNSt3__120__throw_out_of_rangeB7v160006EPKc, symObjAddr: 0x4C50, symBinAddr: 0x1000056E8, symSize: 0x50 }
  - { offsetInCU: 0x39B51, offset: 0x39B51, size: 0x8, addend: 0x0, symName: __ZNSt3__16vectorINS_12basic_stringIcNS_11char_traitsIcEENS_9allocatorIcEEEENS4_IS6_EEEC2ERKS8_, symObjAddr: 0x5CB0, symBinAddr: 0x100006748, symSize: 0x120 }
  - { offsetInCU: 0x39E88, offset: 0x39E88, size: 0x8, addend: 0x0, symName: __ZNSt3__16vectorI3NetNS_9allocatorIS1_EEE21__push_back_slow_pathIRKS1_EEvOT_, symObjAddr: 0x5A34, symBinAddr: 0x1000064CC, symSize: 0x27C }
  - { offsetInCU: 0x3AD8B, offset: 0x3AD8B, size: 0x8, addend: 0x0, symName: __ZNKSt3__16vectorI12PlacementRowNS_9allocatorIS1_EEE20__throw_length_errorB7v160006Ev, symObjAddr: 0x5F9C, symBinAddr: 0x100006A34, symSize: 0x14 }
  - { offsetInCU: 0x3ADB5, offset: 0x3ADB5, size: 0x8, addend: 0x0, symName: __ZNSt3__16vectorI11TimingSlackNS_9allocatorIS1_EEE21__push_back_slow_pathIRKS1_EEvOT_, symObjAddr: 0x5FB0, symBinAddr: 0x100006A48, symSize: 0x240 }
  - { offsetInCU: 0x3AF12, offset: 0x3AF12, size: 0x8, addend: 0x0, symName: __ZNSt3__16vectorI11TimingSlackNS_9allocatorIS1_EEE21__push_back_slow_pathIRKS1_EEvOT_, symObjAddr: 0x5FB0, symBinAddr: 0x100006A48, symSize: 0x240 }
  - { offsetInCU: 0x3BA06, offset: 0x3BA06, size: 0x8, addend: 0x0, symName: __ZNSt3__16vectorI9GatePowerNS_9allocatorIS1_EEE21__push_back_slow_pathIRKS1_EEvOT_, symObjAddr: 0x6284, symBinAddr: 0x100006D1C, symSize: 0x1A4 }
  - { offsetInCU: 0x3C2B6, offset: 0x3C2B6, size: 0x8, addend: 0x0, symName: __ZNSt3__16vectorI9QpindelayNS_9allocatorIS1_EEE21__push_back_slow_pathIRKS1_EEvOT_, symObjAddr: 0x64A0, symBinAddr: 0x100006F38, symSize: 0x1A4 }
  - { offsetInCU: 0x3CC56, offset: 0x3CC56, size: 0x8, addend: 0x0, symName: __ZNKSt3__112basic_stringIcNS_11char_traitsIcEENS_9allocatorIcEEE20__throw_length_errorB7v160006Ev, symObjAddr: 0x4470, symBinAddr: 0x100004F08, symSize: 0x14 }
  - { offsetInCU: 0x3CC80, offset: 0x3CC80, size: 0x8, addend: 0x0, symName: __ZNSt3__120__throw_length_errorB7v160006EPKc, symObjAddr: 0x4484, symBinAddr: 0x100004F1C, symSize: 0x50 }
  - { offsetInCU: 0x3CC8B, offset: 0x3CC8B, size: 0x8, addend: 0x0, symName: __ZNSt12length_errorC1B7v160006EPKc, symObjAddr: 0x44D4, symBinAddr: 0x100004F6C, symSize: 0x24 }
  - { offsetInCU: 0x3D075, offset: 0x3D075, size: 0x8, addend: 0x0, symName: __ZNKSt3__16vectorINS0_IdNS_9allocatorIdEEEENS1_IS3_EEE20__throw_length_errorB7v160006Ev, symObjAddr: 0x49B4, symBinAddr: 0x10000544C, symSize: 0x14 }
  - { offsetInCU: 0x3D09F, offset: 0x3D09F, size: 0x8, addend: 0x0, symName: __ZNSt3__16vectorINS_12basic_stringIcNS_11char_traitsIcEENS_9allocatorIcEEEENS4_IS6_EEE21__push_back_slow_pathIRKS6_EEvOT_, symObjAddr: 0x49C8, symBinAddr: 0x100005460, symSize: 0x19C }
  - { offsetInCU: 0x3D0AA, offset: 0x3D0AA, size: 0x8, addend: 0x0, symName: __ZNSt3__114__split_bufferINS_6vectorIdNS_9allocatorIdEEEERNS2_IS4_EEED1Ev, symObjAddr: 0x4948, symBinAddr: 0x1000053E0, symSize: 0x6C }
  - { offsetInCU: 0x3D6FC, offset: 0x3D6FC, size: 0x8, addend: 0x0, symName: __ZNKSt3__16vectorINS_12basic_stringIcNS_11char_traitsIcEENS_9allocatorIcEEEENS4_IS6_EEE20__throw_length_errorB7v160006Ev, symObjAddr: 0x4BC8, symBinAddr: 0x100005660, symSize: 0x14 }
  - { offsetInCU: 0x3D726, offset: 0x3D726, size: 0x8, addend: 0x0, symName: __ZNSt3__16__treeINS_12__value_typeINS_12basic_stringIcNS_11char_traitsIcEENS_9allocatorIcEEEEdEENS_19__map_value_compareIS7_S8_NS_4lessIS7_EELb1EEENS5_IS8_EEE7destroyEPNS_11__tree_nodeIS8_PvEE, symObjAddr: 0x4BDC, symBinAddr: 0x100005674, symSize: 0x60 }
  - { offsetInCU: 0x3D731, offset: 0x3D731, size: 0x8, addend: 0x0, symName: __ZNSt3__114__split_bufferINS_12basic_stringIcNS_11char_traitsIcEENS_9allocatorIcEEEERNS4_IS6_EEED1Ev, symObjAddr: 0x4B64, symBinAddr: 0x1000055FC, symSize: 0x64 }
  - { offsetInCU: 0x3DA4B, offset: 0x3DA4B, size: 0x8, addend: 0x0, symName: __ZNSt12out_of_rangeC1B7v160006EPKc, symObjAddr: 0x4CA0, symBinAddr: 0x100005738, symSize: 0x24 }
  - { offsetInCU: 0x3E39F, offset: 0x3E39F, size: 0x8, addend: 0x0, symName: __ZNKSt3__16vectorI3PinNS_9allocatorIS1_EEE20__throw_length_errorB7v160006Ev, symObjAddr: 0x5220, symBinAddr: 0x100005CB8, symSize: 0x14 }
  - { offsetInCU: 0x3E3C9, offset: 0x3E3C9, size: 0x8, addend: 0x0, symName: __ZNSt3__16vectorI8FlipFlopNS_9allocatorIS1_EEE21__push_back_slow_pathIRKS1_EEvOT_, symObjAddr: 0x5234, symBinAddr: 0x100005CCC, symSize: 0x278 }
  - { offsetInCU: 0x3E3D4, offset: 0x3E3D4, size: 0x8, addend: 0x0, symName: __ZNSt3__114__split_bufferI3PinRNS_9allocatorIS1_EEED1Ev, symObjAddr: 0x51BC, symBinAddr: 0x100005C54, symSize: 0x64 }
  - { offsetInCU: 0x3EA08, offset: 0x3EA08, size: 0x8, addend: 0x0, symName: __ZNKSt3__16vectorI8FlipFlopNS_9allocatorIS1_EEE20__throw_length_errorB7v160006Ev, symObjAddr: 0x56D8, symBinAddr: 0x100006170, symSize: 0x14 }
  - { offsetInCU: 0x3EA32, offset: 0x3EA32, size: 0x8, addend: 0x0, symName: __ZNSt3__114__split_bufferI8FlipFlopRNS_9allocatorIS1_EEED2Ev, symObjAddr: 0x56EC, symBinAddr: 0x100006184, symSize: 0xB8 }
  - { offsetInCU: 0x3EA3D, offset: 0x3EA3D, size: 0x8, addend: 0x0, symName: __ZNSt3__114__split_bufferI8FlipFlopRNS_9allocatorIS1_EEED2Ev, symObjAddr: 0x56EC, symBinAddr: 0x100006184, symSize: 0xB8 }
  - { offsetInCU: 0x3F159, offset: 0x3F159, size: 0x8, addend: 0x0, symName: __ZNSt3__128__exception_guard_exceptionsINS_29_AllocatorDestroyRangeReverseINS_9allocatorI3PinEEPS3_EEED1B7v160006Ev, symObjAddr: 0x5670, symBinAddr: 0x100006108, symSize: 0x68 }
  - { offsetInCU: 0x3F3C3, offset: 0x3F3C3, size: 0x8, addend: 0x0, symName: __ZNSt3__128__exception_guard_exceptionsINS_6vectorI3PinNS_9allocatorIS2_EEE16__destroy_vectorEED1B7v160006Ev, symObjAddr: 0x55D8, symBinAddr: 0x100006070, symSize: 0x98 }
  - { offsetInCU: 0x3FAB7, offset: 0x3FAB7, size: 0x8, addend: 0x0, symName: __ZNKSt3__16vectorI8InstanceNS_9allocatorIS1_EEE20__throw_length_errorB7v160006Ev, symObjAddr: 0x5A20, symBinAddr: 0x1000064B8, symSize: 0x14 }
  - { offsetInCU: 0x3FAE1, offset: 0x3FAE1, size: 0x8, addend: 0x0, symName: __ZNSt3__16vectorI3NetNS_9allocatorIS1_EEE21__push_back_slow_pathIRKS1_EEvOT_, symObjAddr: 0x5A34, symBinAddr: 0x1000064CC, symSize: 0x27C }
  - { offsetInCU: 0x3FAEC, offset: 0x3FAEC, size: 0x8, addend: 0x0, symName: __ZNSt3__114__split_bufferI8InstanceRNS_9allocatorIS1_EEED1Ev, symObjAddr: 0x59A0, symBinAddr: 0x100006438, symSize: 0x80 }
  - { offsetInCU: 0x402C7, offset: 0x402C7, size: 0x8, addend: 0x0, symName: __ZNKSt3__16vectorI3NetNS_9allocatorIS1_EEE20__throw_length_errorB7v160006Ev, symObjAddr: 0x5ED0, symBinAddr: 0x100006968, symSize: 0x14 }
  - { offsetInCU: 0x402F1, offset: 0x402F1, size: 0x8, addend: 0x0, symName: __ZNSt3__114__split_bufferI3NetRNS_9allocatorIS1_EEED2Ev, symObjAddr: 0x5EE4, symBinAddr: 0x10000697C, symSize: 0xB8 }
  - { offsetInCU: 0x402FC, offset: 0x402FC, size: 0x8, addend: 0x0, symName: __ZNSt3__114__split_bufferI3NetRNS_9allocatorIS1_EEED2Ev, symObjAddr: 0x5EE4, symBinAddr: 0x10000697C, symSize: 0xB8 }
  - { offsetInCU: 0x40A08, offset: 0x40A08, size: 0x8, addend: 0x0, symName: __ZNSt3__128__exception_guard_exceptionsINS_29_AllocatorDestroyRangeReverseINS_9allocatorINS_12basic_stringIcNS_11char_traitsIcEENS2_IcEEEEEEPS7_EEED1B7v160006Ev, symObjAddr: 0x5E68, symBinAddr: 0x100006900, symSize: 0x68 }
  - { offsetInCU: 0x40C3A, offset: 0x40C3A, size: 0x8, addend: 0x0, symName: __ZNSt3__128__exception_guard_exceptionsINS_6vectorINS_12basic_stringIcNS_11char_traitsIcEENS_9allocatorIcEEEENS5_IS7_EEE16__destroy_vectorEED1B7v160006Ev, symObjAddr: 0x5DD0, symBinAddr: 0x100006868, symSize: 0x98 }
  - { offsetInCU: 0x412F6, offset: 0x412F6, size: 0x8, addend: 0x0, symName: __ZNKSt3__16vectorI11TimingSlackNS_9allocatorIS1_EEE20__throw_length_errorB7v160006Ev, symObjAddr: 0x6270, symBinAddr: 0x100006D08, symSize: 0x14 }
  - { offsetInCU: 0x41320, offset: 0x41320, size: 0x8, addend: 0x0, symName: __ZNSt3__16vectorI9GatePowerNS_9allocatorIS1_EEE21__push_back_slow_pathIRKS1_EEvOT_, symObjAddr: 0x6284, symBinAddr: 0x100006D1C, symSize: 0x1A4 }
  - { offsetInCU: 0x4132B, offset: 0x4132B, size: 0x8, addend: 0x0, symName: __ZNSt3__114__split_bufferI11TimingSlackRNS_9allocatorIS1_EEED1Ev, symObjAddr: 0x61F0, symBinAddr: 0x100006C88, symSize: 0x80 }
  - { offsetInCU: 0x41AB6, offset: 0x41AB6, size: 0x8, addend: 0x0, symName: __ZNKSt3__16vectorI9GatePowerNS_9allocatorIS1_EEE20__throw_length_errorB7v160006Ev, symObjAddr: 0x648C, symBinAddr: 0x100006F24, symSize: 0x14 }
  - { offsetInCU: 0x41AE0, offset: 0x41AE0, size: 0x8, addend: 0x0, symName: __ZNSt3__16vectorI9QpindelayNS_9allocatorIS1_EEE21__push_back_slow_pathIRKS1_EEvOT_, symObjAddr: 0x64A0, symBinAddr: 0x100006F38, symSize: 0x1A4 }
  - { offsetInCU: 0x41AEB, offset: 0x41AEB, size: 0x8, addend: 0x0, symName: __ZNSt3__114__split_bufferI9GatePowerRNS_9allocatorIS1_EEED1Ev, symObjAddr: 0x6428, symBinAddr: 0x100006EC0, symSize: 0x64 }
  - { offsetInCU: 0x42125, offset: 0x42125, size: 0x8, addend: 0x0, symName: __ZNKSt3__16vectorI9QpindelayNS_9allocatorIS1_EEE20__throw_length_errorB7v160006Ev, symObjAddr: 0x66A8, symBinAddr: 0x100007140, symSize: 0x14 }
  - { offsetInCU: 0x4215A, offset: 0x4215A, size: 0x8, addend: 0x0, symName: __ZNSt3__114__split_bufferI9QpindelayRNS_9allocatorIS1_EEED1Ev, symObjAddr: 0x6644, symBinAddr: 0x1000070DC, symSize: 0x64 }
...
